; Function Attrs: mustprogress nounwind uwtable
define hidden noundef ptr @_ZNK11ConvL2FNode5ValueEP8PhaseGVN(ptr nocapture noundef nonnull readonly align 8 dereferenceable(64) %0, ptr nocapture noundef readonly %1) unnamed_addr #1 align 2 {
  %3 = getelementptr inbounds i8, ptr %0, i64 8
  %4 = load ptr, ptr %3, align 8
  %5 = getelementptr inbounds i8, ptr %4, i64 8
  %6 = load ptr, ptr %5, align 8
  %7 = getelementptr inbounds i8, ptr %1, i64 40
  %8 = load ptr, ptr %7, align 8
  %9 = getelementptr inbounds i8, ptr %6, i64 40
  %10 = load i32, ptr %9, align 8
  %11 = getelementptr inbounds i8, ptr %8, i64 16
  %12 = load ptr, ptr %11, align 8
  %13 = zext i32 %10 to i64
  %14 = getelementptr inbounds ptr, ptr %12, i64 %13
  %15 = load ptr, ptr %14, align 8
  %16 = load ptr, ptr @_ZN4Type3TOPE, align 8
  %17 = icmp eq ptr %15, %16
  br i1 %17, label %29, label %18

18:                                               ; preds = %2
  %19 = getelementptr inbounds i8, ptr %15, i64 24
  %20 = load i64, ptr %19, align 8
  %21 = getelementptr inbounds i8, ptr %15, i64 32
  %22 = load i64, ptr %21, align 8
  %23 = icmp eq i64 %20, %22
  br i1 %23, label %24, label %27

24:                                               ; preds = %18
  %25 = sitofp i64 %20 to float
  %26 = tail call noundef ptr @_ZN5TypeF4makeEf(float noundef %25) #8
  br label %29

27:                                               ; preds = %18
  %28 = load ptr, ptr @_ZN4Type5FLOATE, align 8
  br label %29

29:                                               ; preds = %2, %27, %24
  %.0 = phi ptr [ %26, %24 ], [ %28, %27 ], [ %16, %2 ]
  ret ptr %.0
}